target datalayout = "e-m:e-p270:32:32-p271:32:32-p272:64:64-i64:64-i128:128-f80:128-n8:16:32:64-S128"
target triple = "x86_64-pc-linux-gnu"

%struct.CType = type { i32, i32, i16, i16, %struct.GCRef }
%struct.GCRef = type { i64 }
%struct.CTState = type { ptr, i32, i32, ptr, ptr, ptr, %struct.CCallback, [128 x i16] }
%struct.CCallback = type { [8 x %union.FPRCBArg], [8 x i64], ptr, ptr, ptr, i32, i32, i32 }
%union.FPRCBArg = type { double }
%union.TValue = type { i64 }
%struct.MRef = type { i64 }
%struct.GCtab = type { %struct.GCRef, i8, i8, i8, i8, %struct.MRef, %struct.GCRef, %struct.GCRef, %struct.MRef, i32, i32, %struct.MRef }

; Function Attrs: alwaysinline nounwind uwtable
define internal ptr @ctype_child(ptr noundef %0, ptr noundef %1) #2 {
  %3 = alloca ptr, align 8
  %4 = alloca ptr, align 8
  store ptr %0, ptr %3, align 8, !tbaa !4
  store ptr %1, ptr %4, align 8, !tbaa !9
  %5 = load ptr, ptr %3, align 8, !tbaa !4
  %6 = load ptr, ptr %4, align 8, !tbaa !9
  %7 = getelementptr inbounds nuw %struct.CType, ptr %6, i32 0, i32 0
  %8 = load i32, ptr %7, align 8, !tbaa !13
  %9 = and i32 %8, 65535
  %10 = call ptr @ctype_get(ptr noundef %5, i32 noundef %9)
  ret ptr %10
}

; Function Attrs: alwaysinline nounwind uwtable
define internal i32 @ctype_check(ptr noundef %0, i32 noundef %1) #2 {
  %3 = alloca ptr, align 8
  %4 = alloca i32, align 4
  store ptr %0, ptr %3, align 8, !tbaa !4
  store i32 %1, ptr %4, align 4, !tbaa !11
  %5 = load i32, ptr %4, align 4, !tbaa !11
  ret i32 %5
}

; Function Attrs: alwaysinline nounwind uwtable
define internal ptr @ctype_rawchild(ptr noundef %0, ptr noundef %1) #2 {
  %3 = alloca ptr, align 8
  %4 = alloca ptr, align 8
  store ptr %0, ptr %3, align 8, !tbaa !4
  store ptr %1, ptr %4, align 8, !tbaa !9
  br label %5

5:                                                ; preds = %9, %2
  %6 = load ptr, ptr %3, align 8, !tbaa !4
  %7 = load ptr, ptr %4, align 8, !tbaa !9
  %8 = call ptr @ctype_child(ptr noundef %6, ptr noundef %7)
  store ptr %8, ptr %4, align 8, !tbaa !9
  br label %9

9:                                                ; preds = %5
  %10 = load ptr, ptr %4, align 8, !tbaa !9
  %11 = getelementptr inbounds nuw %struct.CType, ptr %10, i32 0, i32 0
  %12 = load i32, ptr %11, align 8, !tbaa !13
  %13 = lshr i32 %12, 28
  %14 = icmp eq i32 %13, 8
  br i1 %14, label %5, label %15, !llvm.loop !64

15:                                               ; preds = %9
  %16 = load ptr, ptr %4, align 8, !tbaa !9
  ret ptr %16
}

; Function Attrs: alwaysinline nounwind uwtable
define internal ptr @ctype_get(ptr noundef %0, i32 noundef %1) #2 {
  %3 = alloca ptr, align 8
  %4 = alloca i32, align 4
  store ptr %0, ptr %3, align 8, !tbaa !4
  store i32 %1, ptr %4, align 4, !tbaa !11
  %5 = load ptr, ptr %3, align 8, !tbaa !4
  %6 = getelementptr inbounds nuw %struct.CTState, ptr %5, i32 0, i32 0
  %7 = load ptr, ptr %6, align 8, !tbaa !42
  %8 = load ptr, ptr %3, align 8, !tbaa !4
  %9 = load i32, ptr %4, align 4, !tbaa !11
  %10 = call i32 @ctype_check(ptr noundef %8, i32 noundef %9)
  %11 = zext i32 %10 to i64
  %12 = getelementptr inbounds nuw %struct.CType, ptr %7, i64 %11
  ret ptr %12
}

; Function Attrs: nounwind uwtable
define internal void @cconv_substruct_tab(ptr noundef %0, ptr noundef %1, ptr noundef %2, ptr noundef %3, ptr noundef %4, i32 noundef %5) #0 {
  %7 = alloca ptr, align 8
  %8 = alloca ptr, align 8
  %9 = alloca ptr, align 8
  %10 = alloca ptr, align 8
  %11 = alloca ptr, align 8
  %12 = alloca i32, align 4
  %13 = alloca i32, align 4
  %14 = alloca ptr, align 8
  %15 = alloca ptr, align 8
  %16 = alloca i32, align 4
  %17 = alloca i32, align 4
  %18 = alloca i32, align 4
  store ptr %0, ptr %7, align 8, !tbaa !4
  store ptr %1, ptr %8, align 8, !tbaa !9
  store ptr %2, ptr %9, align 8, !tbaa !21
  store ptr %3, ptr %10, align 8, !tbaa !65
  store ptr %4, ptr %11, align 8, !tbaa !19
  store i32 %5, ptr %12, align 4, !tbaa !11
  call void @llvm.lifetime.start.p0(i64 4, ptr %13) #9
  %19 = load ptr, ptr %8, align 8, !tbaa !9
  %20 = getelementptr inbounds nuw %struct.CType, ptr %19, i32 0, i32 2
  %21 = load i16, ptr %20, align 8, !tbaa !84
  %22 = zext i16 %21 to i32
  store i32 %22, ptr %13, align 4, !tbaa !11
  br label %23

23:                                               ; preds = %182, %180, %6
  %24 = load i32, ptr %13, align 4, !tbaa !11
  %25 = icmp ne i32 %24, 0
  br i1 %25, label %26, label %183

26:                                               ; preds = %23
  call void @llvm.lifetime.start.p0(i64 8, ptr %14) #9
  %27 = load ptr, ptr %7, align 8, !tbaa !4
  %28 = load i32, ptr %13, align 4, !tbaa !11
  %29 = call ptr @ctype_get(ptr noundef %27, i32 noundef %28)
  store ptr %29, ptr %14, align 8, !tbaa !9
  %30 = load ptr, ptr %14, align 8, !tbaa !9
  %31 = getelementptr inbounds nuw %struct.CType, ptr %30, i32 0, i32 2
  %32 = load i16, ptr %31, align 8, !tbaa !84
  %33 = zext i16 %32 to i32
  store i32 %33, ptr %13, align 4, !tbaa !11
  %34 = load ptr, ptr %14, align 8, !tbaa !9
  %35 = getelementptr inbounds nuw %struct.CType, ptr %34, i32 0, i32 0
  %36 = load i32, ptr %35, align 8, !tbaa !13
  %37 = lshr i32 %36, 28
  %38 = icmp eq i32 %37, 9
  br i1 %38, label %45, label %39

39:                                               ; preds = %26
  %40 = load ptr, ptr %14, align 8, !tbaa !9
  %41 = getelementptr inbounds nuw %struct.CType, ptr %40, i32 0, i32 0
  %42 = load i32, ptr %41, align 8, !tbaa !13
  %43 = lshr i32 %42, 28
  %44 = icmp eq i32 %43, 10
  br i1 %44, label %45, label %158

45:                                               ; preds = %39, %26
  call void @llvm.lifetime.start.p0(i64 8, ptr %15) #9
  call void @llvm.lifetime.start.p0(i64 4, ptr %16) #9
  %46 = load ptr, ptr %11, align 8, !tbaa !19
  %47 = load i32, ptr %46, align 4, !tbaa !11
  store i32 %47, ptr %16, align 4, !tbaa !11
  call void @llvm.lifetime.start.p0(i64 4, ptr %17) #9
  %48 = load i32, ptr %16, align 4, !tbaa !11
  store i32 %48, ptr %17, align 4, !tbaa !11
  %49 = load ptr, ptr %14, align 8, !tbaa !9
  %50 = getelementptr inbounds nuw %struct.CType, ptr %49, i32 0, i32 4
  %51 = getelementptr inbounds nuw %struct.GCRef, ptr %50, i32 0, i32 0
  %52 = load i64, ptr %51, align 8, !tbaa !85
  %53 = inttoptr i64 %52 to ptr
  %54 = icmp ne ptr %53, null
  br i1 %54, label %56, label %55

55:                                               ; preds = %45
  store i32 2, ptr %18, align 4
  br label %155, !llvm.loop !86

56:                                               ; preds = %45
  %57 = load i32, ptr %16, align 4, !tbaa !11
  %58 = icmp sge i32 %57, 0
  br i1 %58, label %59, label %101

59:                                               ; preds = %56
  br label %60

60:                                               ; preds = %90, %59
  %61 = load i32, ptr %16, align 4, !tbaa !11
  %62 = load ptr, ptr %10, align 8, !tbaa !65
  %63 = getelementptr inbounds nuw %struct.GCtab, ptr %62, i32 0, i32 9
  %64 = load i32, ptr %63, align 8, !tbaa !66
  %65 = icmp ult i32 %61, %64
  br i1 %65, label %66, label %75

66:                                               ; preds = %60
  %67 = load ptr, ptr %10, align 8, !tbaa !65
  %68 = getelementptr inbounds nuw %struct.GCtab, ptr %67, i32 0, i32 5
  %69 = getelementptr inbounds nuw %struct.MRef, ptr %68, i32 0, i32 0
  %70 = load i64, ptr %69, align 8, !tbaa !68
  %71 = inttoptr i64 %70 to ptr
  %72 = load i32, ptr %16, align 4, !tbaa !11
  %73 = sext i32 %72 to i64
  %74 = getelementptr inbounds %union.TValue, ptr %71, i64 %73
  br label %79

75:                                               ; preds = %60
  %76 = load ptr, ptr %10, align 8, !tbaa !65
  %77 = load i32, ptr %16, align 4, !tbaa !11
  %78 = call ptr @lj_tab_getinth(ptr noundef %76, i32 noundef %77)
  br label %79

79:                                               ; preds = %75, %66
  %80 = phi ptr [ %74, %66 ], [ %78, %75 ]
  store ptr %80, ptr %15, align 8, !tbaa !43
  %81 = load ptr, ptr %15, align 8, !tbaa !43
  %82 = icmp ne ptr %81, null
  br i1 %82, label %83, label %87

83:                                               ; preds = %79
  %84 = load ptr, ptr %15, align 8, !tbaa !43
  %85 = load i64, ptr %84, align 8, !tbaa !23
  %86 = icmp eq i64 %85, -1
  br i1 %86, label %87, label %97

87:                                               ; preds = %83, %79
  %88 = load i32, ptr %16, align 4, !tbaa !11
  %89 = icmp eq i32 %88, 0
  br i1 %89, label %90, label %91

90:                                               ; preds = %87
  store i32 1, ptr %16, align 4, !tbaa !11
  br label %60

91:                                               ; preds = %87
  %92 = load i32, ptr %17, align 4, !tbaa !11
  %93 = icmp eq i32 %92, 0
  br i1 %93, label %94, label %96

94:                                               ; preds = %91
  store i32 -1, ptr %16, align 4, !tbaa !11
  %95 = load ptr, ptr %11, align 8, !tbaa !19
  store i32 -1, ptr %95, align 4, !tbaa !11
  br label %102

96:                                               ; preds = %91
  store i32 3, ptr %18, align 4
  br label %155

97:                                               ; preds = %83
  %98 = load i32, ptr %16, align 4, !tbaa !11
  %99 = add nsw i32 %98, 1
  %100 = load ptr, ptr %11, align 8, !tbaa !19
  store i32 %99, ptr %100, align 4, !tbaa !11
  br label %118

101:                                              ; preds = %56
  br label %102

102:                                              ; preds = %101, %94
  %103 = load ptr, ptr %10, align 8, !tbaa !65
  %104 = load ptr, ptr %14, align 8, !tbaa !9
  %105 = getelementptr inbounds nuw %struct.CType, ptr %104, i32 0, i32 4
  %106 = getelementptr inbounds nuw %struct.GCRef, ptr %105, i32 0, i32 0
  %107 = load i64, ptr %106, align 8, !tbaa !85
  %108 = inttoptr i64 %107 to ptr
  %109 = call ptr @lj_tab_getstr(ptr noundef %103, ptr noundef %108)
  store ptr %109, ptr %15, align 8, !tbaa !43
  %110 = load ptr, ptr %15, align 8, !tbaa !43
  %111 = icmp ne ptr %110, null
  br i1 %111, label %112, label %116

112:                                              ; preds = %102
  %113 = load ptr, ptr %15, align 8, !tbaa !43
  %114 = load i64, ptr %113, align 8, !tbaa !23
  %115 = icmp eq i64 %114, -1
  br i1 %115, label %116, label %117

116:                                              ; preds = %112, %102
  store i32 2, ptr %18, align 4
  br label %155, !llvm.loop !86

117:                                              ; preds = %112
  br label %118

118:                                              ; preds = %117, %97
  %119 = load ptr, ptr %14, align 8, !tbaa !9
  %120 = getelementptr inbounds nuw %struct.CType, ptr %119, i32 0, i32 0
  %121 = load i32, ptr %120, align 8, !tbaa !13
  %122 = lshr i32 %121, 28
  %123 = icmp eq i32 %122, 9
  br i1 %123, label %124, label %137

124:                                              ; preds = %118
  %125 = load ptr, ptr %7, align 8, !tbaa !4
  %126 = load ptr, ptr %7, align 8, !tbaa !4
  %127 = load ptr, ptr %14, align 8, !tbaa !9
  %128 = call ptr @ctype_rawchild(ptr noundef %126, ptr noundef %127)
  %129 = load ptr, ptr %9, align 8, !tbaa !21
  %130 = load ptr, ptr %14, align 8, !tbaa !9
  %131 = getelementptr inbounds nuw %struct.CType, ptr %130, i32 0, i32 1
  %132 = load i32, ptr %131, align 4, !tbaa !18
  %133 = zext i32 %132 to i64
  %134 = getelementptr inbounds nuw i8, ptr %129, i64 %133
  %135 = load ptr, ptr %15, align 8, !tbaa !43
  %136 = load i32, ptr %12, align 4, !tbaa !11
  call void @lj_cconv_ct_tv(ptr noundef %125, ptr noundef %128, ptr noundef %134, ptr noundef %135, i32 noundef %136)
  br label %147

137:                                              ; preds = %118
  %138 = load ptr, ptr %7, align 8, !tbaa !4
  %139 = load ptr, ptr %14, align 8, !tbaa !9
  %140 = load ptr, ptr %9, align 8, !tbaa !21
  %141 = load ptr, ptr %14, align 8, !tbaa !9
  %142 = getelementptr inbounds nuw %struct.CType, ptr %141, i32 0, i32 1
  %143 = load i32, ptr %142, align 4, !tbaa !18
  %144 = zext i32 %143 to i64
  %145 = getelementptr inbounds nuw i8, ptr %140, i64 %144
  %146 = load ptr, ptr %15, align 8, !tbaa !43
  call void @lj_cconv_bf_tv(ptr noundef %138, ptr noundef %139, ptr noundef %145, ptr noundef %146)
  br label %147

147:                                              ; preds = %137, %124
  %148 = load ptr, ptr %8, align 8, !tbaa !9
  %149 = getelementptr inbounds nuw %struct.CType, ptr %148, i32 0, i32 0
  %150 = load i32, ptr %149, align 8, !tbaa !13
  %151 = and i32 %150, 8388608
  %152 = icmp ne i32 %151, 0
  br i1 %152, label %153, label %154

153:                                              ; preds = %147
  store i32 3, ptr %18, align 4
  br label %155

154:                                              ; preds = %147
  store i32 0, ptr %18, align 4
  br label %155

155:                                              ; preds = %154, %153, %116, %96, %55
  call void @llvm.lifetime.end.p0(i64 4, ptr %17) #9
  call void @llvm.lifetime.end.p0(i64 4, ptr %16) #9
  call void @llvm.lifetime.end.p0(i64 8, ptr %15) #9
  %156 = load i32, ptr %18, align 4
  switch i32 %156, label %180 [
    i32 0, label %157
  ]

157:                                              ; preds = %155
  br label %179

158:                                              ; preds = %39
  %159 = load ptr, ptr %14, align 8, !tbaa !9
  %160 = getelementptr inbounds nuw %struct.CType, ptr %159, i32 0, i32 0
  %161 = load i32, ptr %160, align 8, !tbaa !13
  %162 = and i32 %161, -251723776
  %163 = icmp eq i32 %162, -2147287040
  br i1 %163, label %164, label %178

164:                                              ; preds = %158
  %165 = load ptr, ptr %7, align 8, !tbaa !4
  %166 = load ptr, ptr %7, align 8, !tbaa !4
  %167 = load ptr, ptr %14, align 8, !tbaa !9
  %168 = call ptr @ctype_rawchild(ptr noundef %166, ptr noundef %167)
  %169 = load ptr, ptr %9, align 8, !tbaa !21
  %170 = load ptr, ptr %14, align 8, !tbaa !9
  %171 = getelementptr inbounds nuw %struct.CType, ptr %170, i32 0, i32 1
  %172 = load i32, ptr %171, align 4, !tbaa !18
  %173 = zext i32 %172 to i64
  %174 = getelementptr inbounds nuw i8, ptr %169, i64 %173
  %175 = load ptr, ptr %10, align 8, !tbaa !65
  %176 = load ptr, ptr %11, align 8, !tbaa !19
  %177 = load i32, ptr %12, align 4, !tbaa !11
  call void @cconv_substruct_tab(ptr noundef %165, ptr noundef %168, ptr noundef %174, ptr noundef %175, ptr noundef %176, i32 noundef %177)
  br label %178

178:                                              ; preds = %164, %158
  br label %179

179:                                              ; preds = %178, %157
  store i32 0, ptr %18, align 4
  br label %180

180:                                              ; preds = %179, %155
  call void @llvm.lifetime.end.p0(i64 8, ptr %14) #9
  %181 = load i32, ptr %18, align 4
  switch i32 %181, label %184 [
    i32 0, label %182
    i32 2, label %23
    i32 3, label %183
  ]

182:                                              ; preds = %180
  br label %23, !llvm.loop !86

183:                                              ; preds = %180, %23
  call void @llvm.lifetime.end.p0(i64 4, ptr %13) #9
  ret void

184:                                              ; preds = %180
  unreachable
}