; Function Attrs: nounwind uwtable
define internal fastcc void @cconv_substruct_tab(ptr noundef %0, ptr noundef readonly captures(none) %1, ptr noundef %2, ptr noundef %3, ptr noundef nonnull captures(none) %4, i32 noundef %5) unnamed_addr #2 {
  %7 = getelementptr inbounds nuw i8, ptr %1, i64 8
  %8 = load i16, ptr %7, align 8, !tbaa !67
  %.not78 = icmp eq i16 %8, 0
  br i1 %.not78, label %.thread.thread, label %.lr.ph

.lr.ph:                                           ; preds = %6
  %9 = getelementptr inbounds nuw i8, ptr %3, i64 48
  %10 = getelementptr inbounds nuw i8, ptr %3, i64 16
  br label %.backedge

.critedge:                                        ; preds = %ctype_rawchild.exit, %75, %18, %49, %45
  %.not.old = icmp eq i16 %15, 0
  br i1 %.not.old, label %.thread.thread, label %.backedge.backedge

.backedge.backedge:                               ; preds = %.critedge, %72
  br label %.backedge

.backedge:                                        ; preds = %.backedge.backedge, %.lr.ph
  %.052.in79 = phi i16 [ %8, %.lr.ph ], [ %15, %.backedge.backedge ]
  %11 = load ptr, ptr %0, align 8, !tbaa !4
  %12 = zext i16 %.052.in79 to i64
  %13 = getelementptr inbounds nuw %struct.CType, ptr %11, i64 %12
  %14 = getelementptr inbounds nuw i8, ptr %13, i64 8
  %15 = load i16, ptr %14, align 8, !tbaa !67
  %16 = load i32, ptr %13, align 8, !tbaa !17
  %17 = lshr i32 %16, 28
  %.off = add nsw i32 %17, -9
  %switch64 = icmp ult i32 %.off, 2
  br i1 %switch64, label %18, label %75

18:                                               ; preds = %.backedge
  %19 = load i32, ptr %4, align 4, !tbaa !24
  %20 = getelementptr inbounds nuw i8, ptr %13, i64 16
  %21 = load i64, ptr %20, align 8, !tbaa !68
  %.not59 = icmp eq i64 %21, 0
  br i1 %.not59, label %.critedge, label %22, !llvm.loop !69

22:                                               ; preds = %18
  %23 = icmp sgt i32 %19, -1
  br i1 %23, label %.preheader72, label %45

.preheader72:                                     ; preds = %22, %38
  %.053 = phi i32 [ 1, %38 ], [ %19, %22 ]
  %24 = load i32, ptr %9, align 8, !tbaa !61
  %25 = icmp ult i32 %.053, %24
  br i1 %25, label %26, label %31

26:                                               ; preds = %.preheader72
  %27 = load i64, ptr %10, align 8, !tbaa !63
  %28 = inttoptr i64 %27 to ptr
  %29 = zext nneg i32 %.053 to i64
  %30 = getelementptr inbounds nuw %union.TValue, ptr %28, i64 %29
  br label %33

31:                                               ; preds = %.preheader72
  %32 = tail call ptr @lj_tab_getinth(ptr noundef nonnull %3, i32 noundef %.053) #9
  br label %33

33:                                               ; preds = %31, %26
  %34 = phi ptr [ %30, %26 ], [ %32, %31 ]
  %.not60 = icmp eq ptr %34, null
  br i1 %.not60, label %38, label %35

35:                                               ; preds = %33
  %36 = load i64, ptr %34, align 8, !tbaa !23
  %37 = icmp eq i64 %36, -1
  br i1 %37, label %38, label %43

38:                                               ; preds = %35, %33
  %39 = icmp eq i32 %.053, 0
  br i1 %39, label %.preheader72, label %40

40:                                               ; preds = %38
  %41 = icmp eq i32 %19, 0
  br i1 %41, label %42, label %.thread.thread

42:                                               ; preds = %40
  store i32 -1, ptr %4, align 4, !tbaa !24
  %.pre = load i64, ptr %20, align 8, !tbaa !68
  br label %45

43:                                               ; preds = %35
  %44 = add nuw nsw i32 %.053, 1
  store i32 %44, ptr %4, align 4, !tbaa !24
  br label %52

45:                                               ; preds = %22, %42
  %46 = phi i64 [ %21, %22 ], [ %.pre, %42 ]
  %47 = inttoptr i64 %46 to ptr
  %48 = tail call ptr @lj_tab_getstr(ptr noundef %3, ptr noundef %47) #9
  %.not61 = icmp eq ptr %48, null
  br i1 %.not61, label %.critedge, label %49, !llvm.loop !69

49:                                               ; preds = %45
  %50 = load i64, ptr %48, align 8, !tbaa !23
  %51 = icmp eq i64 %50, -1
  br i1 %51, label %.critedge, label %52, !llvm.loop !69

52:                                               ; preds = %49, %43
  %.054 = phi ptr [ %48, %49 ], [ %34, %43 ]
  %53 = load i32, ptr %13, align 8, !tbaa !17
  %.mask = and i32 %53, -268435456
  %54 = icmp eq i32 %.mask, -1879048192
  br i1 %54, label %.preheader, label %67

.preheader:                                       ; preds = %52
  %55 = load ptr, ptr %0, align 8, !tbaa !4
  br label %56

56:                                               ; preds = %.preheader, %56
  %57 = phi i32 [ %61, %56 ], [ %53, %.preheader ]
  %58 = and i32 %57, 65535
  %59 = zext nneg i32 %58 to i64
  %60 = getelementptr inbounds nuw %struct.CType, ptr %55, i64 %59
  %61 = load i32, ptr %60, align 8, !tbaa !17
  %62 = icmp slt i32 %61, -1879048192
  br i1 %62, label %56, label %ctype_rawchild.exit66, !llvm.loop !44

ctype_rawchild.exit66:                            ; preds = %56
  %63 = getelementptr inbounds nuw i8, ptr %13, i64 4
  %64 = load i32, ptr %63, align 4, !tbaa !22
  %65 = zext i32 %64 to i64
  %66 = getelementptr inbounds nuw i8, ptr %2, i64 %65
  tail call void @lj_cconv_ct_tv(ptr noundef nonnull %0, ptr noundef nonnull %60, ptr noundef %66, ptr noundef nonnull %.054, i32 noundef %5)
  br label %72

67:                                               ; preds = %52
  %68 = getelementptr inbounds nuw i8, ptr %13, i64 4
  %69 = load i32, ptr %68, align 4, !tbaa !22
  %70 = zext i32 %69 to i64
  %71 = getelementptr inbounds nuw i8, ptr %2, i64 %70
  tail call void @lj_cconv_bf_tv(ptr noundef nonnull %0, ptr noundef nonnull %13, ptr noundef %71, ptr noundef nonnull %.054)
  br label %72

72:                                               ; preds = %ctype_rawchild.exit66, %67
  %73 = load i32, ptr %1, align 8, !tbaa !17
  %74 = and i32 %73, 8388608
  %.not62 = icmp ne i32 %74, 0
  %.not = icmp eq i16 %15, 0
  %or.cond = select i1 %.not62, i1 true, i1 %.not
  br i1 %or.cond, label %.thread.thread, label %.backedge.backedge

75:                                               ; preds = %.backedge
  %76 = and i32 %16, -251723776
  %77 = icmp eq i32 %76, -2147287040
  br i1 %77, label %.preheader73, label %.critedge

.preheader73:                                     ; preds = %75, %.preheader73
  %78 = phi i32 [ %82, %.preheader73 ], [ %16, %75 ]
  %79 = and i32 %78, 65535
  %80 = zext nneg i32 %79 to i64
  %81 = getelementptr inbounds nuw %struct.CType, ptr %11, i64 %80
  %82 = load i32, ptr %81, align 8, !tbaa !17
  %83 = icmp slt i32 %82, -1879048192
  br i1 %83, label %.preheader73, label %ctype_rawchild.exit, !llvm.loop !44

ctype_rawchild.exit:                              ; preds = %.preheader73
  %84 = getelementptr inbounds nuw i8, ptr %13, i64 4
  %85 = load i32, ptr %84, align 4, !tbaa !22
  %86 = zext i32 %85 to i64
  %87 = getelementptr inbounds nuw i8, ptr %2, i64 %86
  tail call fastcc void @cconv_substruct_tab(ptr noundef nonnull %0, ptr noundef nonnull %81, ptr noundef %87, ptr noundef %3, ptr noundef %4, i32 noundef %5)
  br label %.critedge

.thread.thread:                                   ; preds = %.critedge, %40, %72, %6
  ret void
}